; Function Attrs: mustprogress nofree nounwind uwtable
define void @_ZN5Ipopt11FileJournal9PrintImplENS_16EJournalCategoryENS_13EJournalLevelEPKc(ptr nocapture noundef nonnull readonly align 8 dereferenceable(184) %0, i32 %1, i32 %2, ptr nocapture noundef readonly %3) unnamed_addr #13 align 2 {
  %5 = getelementptr inbounds i8, ptr %0, i64 176
  %6 = load ptr, ptr %5, align 8
  %.not = icmp eq ptr %6, null
  br i1 %.not, label %8, label %7

7:                                                ; preds = %4
  %fputs = tail call i32 @fputs(ptr %3, ptr nonnull %6)
  br label %8

8:                                                ; preds = %7, %4
  ret void
}